; Function Attrs: mustprogress nofree norecurse nosync nounwind willreturn memory(none) uwtable
define noundef i32 @_ZN6duckdb16utf8proc_toupperEi(i32 noundef %0) local_unnamed_addr #0 {
  %or.cond.i = icmp ugt i32 %0, 1114111
  br i1 %or.cond.i, label %_ZN6duckdb21utf8proc_get_propertyEi.exit, label %2

2:                                                ; preds = %1
  %3 = lshr i32 %0, 8
  %4 = zext nneg i32 %3 to i64
  %5 = getelementptr inbounds nuw [4352 x i16], ptr @_ZN6duckdbL20utf8proc_stage1tableE, i64 0, i64 %4
  %6 = load i16, ptr %5, align 2, !tbaa !8
  %7 = zext i16 %6 to i32
  %8 = and i32 %0, 255
  %9 = add nuw nsw i32 %8, %7
  %10 = zext nneg i32 %9 to i64
  %11 = getelementptr inbounds nuw [44800 x i16], ptr @_ZN6duckdbL20utf8proc_stage2tableE, i64 0, i64 %10
  %12 = load i16, ptr %11, align 2, !tbaa !8
  %13 = zext i16 %12 to i64
  %14 = getelementptr inbounds nuw %"struct.duckdb::utf8proc_property_struct", ptr @_ZN6duckdbL19utf8proc_propertiesE, i64 %13
  br label %_ZN6duckdb21utf8proc_get_propertyEi.exit

_ZN6duckdb21utf8proc_get_propertyEi.exit:         ; preds = %1, %2
  %15 = phi ptr [ %14, %2 ], [ @_ZN6duckdbL19utf8proc_propertiesE, %1 ]
  %16 = getelementptr inbounds nuw i8, ptr %15, i64 12
  %17 = load i16, ptr %16, align 4, !tbaa !12
  %.not = icmp eq i16 %17, -1
  br i1 %.not, label %_ZN6duckdbL21seqindex_decode_indexEj.exit, label %18

18:                                               ; preds = %_ZN6duckdb21utf8proc_get_propertyEi.exit
  %19 = zext i16 %17 to i64
  %20 = getelementptr inbounds nuw [12682 x i16], ptr @_ZN6duckdbL18utf8proc_sequencesE, i64 0, i64 %19
  %21 = load i16, ptr %20, align 2, !tbaa !8
  %22 = zext i16 %21 to i32
  %23 = and i32 %22, 63488
  %24 = icmp eq i32 %23, 55296
  br i1 %24, label %25, label %_ZN6duckdbL21seqindex_decode_indexEj.exit

25:                                               ; preds = %18
  %26 = getelementptr inbounds nuw i8, ptr %20, i64 2
  %27 = shl nuw nsw i32 %22, 10
  %28 = and i32 %27, 1047552
  %29 = load i16, ptr %26, align 2, !tbaa !8
  %30 = and i16 %29, 1023
  %31 = zext nneg i16 %30 to i32
  %32 = add nuw nsw i32 %28, 65536
  %33 = or disjoint i32 %32, %31
  br label %_ZN6duckdbL21seqindex_decode_indexEj.exit

_ZN6duckdbL21seqindex_decode_indexEj.exit:        ; preds = %25, %18, %_ZN6duckdb21utf8proc_get_propertyEi.exit
  %34 = phi i32 [ %0, %_ZN6duckdb21utf8proc_get_propertyEi.exit ], [ %33, %25 ], [ %22, %18 ]
  ret i32 %34
}